; Function Attrs: mustprogress uwtable
define hidden void @_ZN2bv6solver23mk_eq2bit_justificationEiiN3sat7literalES2_(ptr noalias nocapture writeonly sret(%"class.sat::justification") align 8 %agg.result, ptr noundef nonnull align 8 dereferenceable(640) %this, i32 noundef %v1, i32 noundef %v2, i32 %c.coerce, i32 %a.coerce) local_unnamed_addr #3 align 2 {
entry:
  %call = tail call noundef nonnull align 8 dereferenceable(40) ptr @_ZN3euf13th_euf_solver10get_regionEv(ptr noundef nonnull align 8 dereferenceable(108) %this)
  %call4 = tail call noundef ptr @_ZN6region8allocateEm(ptr noundef nonnull align 8 dereferenceable(40) %call, i64 noundef 56)
  store ptr %this, ptr %call4, align 8
  %add.ptr.i = getelementptr inbounds i8, ptr %call4, i64 8
  store i32 0, ptr %add.ptr.i, align 8
  %m_idx.i = getelementptr inbounds i8, ptr %call4, i64 12
  store i32 -1, ptr %m_idx.i, align 4
  %m_v1.i = getelementptr inbounds i8, ptr %call4, i64 16
  store i32 %v1, ptr %m_v1.i, align 8
  %m_v2.i = getelementptr inbounds i8, ptr %call4, i64 20
  store i32 %v2, ptr %m_v2.i, align 4
  %m_consequent.i = getelementptr inbounds i8, ptr %call4, i64 24
  store i32 %c.coerce, ptr %m_consequent.i, align 8
  %m_antecedent.i = getelementptr inbounds i8, ptr %call4, i64 28
  store i32 %a.coerce, ptr %m_antecedent.i, align 4
  %m_solver.i = getelementptr inbounds i8, ptr %this, i64 24
  %0 = load ptr, ptr %m_solver.i, align 8
  %m_scope_lvl.i = getelementptr inbounds i8, ptr %0, i64 3756
  %1 = load i32, ptr %m_scope_lvl.i, align 4
  %2 = ptrtoint ptr %call4 to i64
  store i32 %1, ptr %agg.result, align 8, !alias.scope !59
  %m_val1.i.i = getelementptr inbounds i8, ptr %agg.result, i64 8
  store i64 %2, ptr %m_val1.i.i, align 8, !alias.scope !59
  %m_val2.i.i = getelementptr inbounds i8, ptr %agg.result, i64 16
  store i32 3, ptr %m_val2.i.i, align 8, !alias.scope !59
  ret void
}